# SymbolsHelper-Confirmed: 6.6.0 amd64
libKF6SyntaxHighlighting.so.6 libkf6syntaxhighlighting6 #MINVER#
* Build-Depends-Package: libkf6syntaxhighlighting-dev
 _ZGVZN9QMetaType21registerConverterImplI5QListIN19KSyntaxHighlighting10DefinitionEE9QIterableI13QMetaSequenceEEEbSt8functionIFbPKvPvEES_S_E10unregister@Base 6.0.0
 _ZGVZN9QMetaType21registerConverterImplI5QListIN19KSyntaxHighlighting5ThemeEE9QIterableI13QMetaSequenceEEEbSt8functionIFbPKvPvEES_S_E10unregister@Base 6.0.0
 _ZGVZN9QMetaType23registerMutableViewImplI5QListIN19KSyntaxHighlighting10DefinitionEE9QIterableI13QMetaSequenceEEEbSt8functionIFbPvS9_EES_S_E10unregister@Base 6.0.0
 _ZGVZN9QMetaType23registerMutableViewImplI5QListIN19KSyntaxHighlighting5ThemeEE9QIterableI13QMetaSequenceEEEbSt8functionIFbPvS9_EES_S_E10unregister@Base 6.0.0
 _ZN13QMetaSequence12MetaSequenceI5QListIN19KSyntaxHighlighting10DefinitionEEE5valueE@Base 6.0.0
 _ZN13QMetaSequence12MetaSequenceI5QListIN19KSyntaxHighlighting5ThemeEEE5valueE@Base 6.0.0
 _ZN19KSyntaxHighlighting10Definition14setKeywordListERK7QStringRK5QListIS1_E@Base 6.0.0
 _ZN19KSyntaxHighlighting10Definition16staticMetaObjectE@Base 6.0.0
 _ZN19KSyntaxHighlighting10DefinitionC1EOS0_@Base 6.0.0
 _ZN19KSyntaxHighlighting10DefinitionC1ERKS0_@Base 6.0.0
 _ZN19KSyntaxHighlighting10DefinitionC1Ev@Base 6.0.0
 _ZN19KSyntaxHighlighting10DefinitionC2EOS0_@Base 6.0.0
 _ZN19KSyntaxHighlighting10DefinitionC2ERKS0_@Base 6.0.0
 _ZN19KSyntaxHighlighting10DefinitionC2Ev@Base 6.0.0
 _ZN19KSyntaxHighlighting10DefinitionD1Ev@Base 6.0.0
 _ZN19KSyntaxHighlighting10DefinitionD2Ev@Base 6.0.0
 _ZN19KSyntaxHighlighting10DefinitionaSEOS0_@Base 6.0.0
 _ZN19KSyntaxHighlighting10DefinitionaSERKS0_@Base 6.0.0
 _ZN19KSyntaxHighlighting10Repository11qt_metacallEN11QMetaObject4CallEiPPv@Base 6.0.0
 _ZN19KSyntaxHighlighting10Repository11qt_metacastEPKc@Base 6.0.0
 _ZN19KSyntaxHighlighting10Repository13aboutToReloadEv@Base 6.0.0
 _ZN19KSyntaxHighlighting10Repository16staticMetaObjectE@Base 6.0.0
 _ZN19KSyntaxHighlighting10Repository19addCustomSearchPathERK7QString@Base 6.0.0
 _ZN19KSyntaxHighlighting10Repository6reloadEv@Base 6.0.0
 _ZN19KSyntaxHighlighting10Repository8reloadedEv@Base 6.0.0
 _ZN19KSyntaxHighlighting10RepositoryC1Ev@Base 6.0.0
 _ZN19KSyntaxHighlighting10RepositoryC2Ev@Base 6.0.0
 _ZN19KSyntaxHighlighting10RepositoryD0Ev@Base 6.0.0
 _ZN19KSyntaxHighlighting10RepositoryD1Ev@Base 6.0.0
 _ZN19KSyntaxHighlighting10RepositoryD2Ev@Base 6.0.0
 _ZN19KSyntaxHighlighting13FoldingRegionC1Ev@Base 6.0.0
 _ZN19KSyntaxHighlighting13FoldingRegionC2Ev@Base 6.0.0
 _ZN19KSyntaxHighlighting15AnsiHighlighter11applyFormatEiiRKNS_6FormatE@Base 6.0.0
 _ZN19KSyntaxHighlighting15AnsiHighlighter13highlightDataEP9QIODeviceNS0_10AnsiFormatE6QFlagsINS0_6OptionEE@Base 6.0.0
 _ZN19KSyntaxHighlighting15AnsiHighlighter13highlightFileERK7QStringNS0_10AnsiFormatE6QFlagsINS0_6OptionEE@Base 6.0.0
 _ZN19KSyntaxHighlighting15AnsiHighlighter13setOutputFileEP8_IO_FILE@Base 6.0.0
 _ZN19KSyntaxHighlighting15AnsiHighlighter13setOutputFileERK7QString@Base 6.0.0
 _ZN19KSyntaxHighlighting15AnsiHighlighter17setBackgroundRoleENS_5Theme15EditorColorRoleE@Base 6.6.0
 _ZN19KSyntaxHighlighting15AnsiHighlighterC1Ev@Base 6.0.0
 _ZN19KSyntaxHighlighting15AnsiHighlighterC2Ev@Base 6.0.0
 _ZN19KSyntaxHighlighting15AnsiHighlighterD0Ev@Base 6.0.0
 _ZN19KSyntaxHighlighting15AnsiHighlighterD1Ev@Base 6.0.0
 _ZN19KSyntaxHighlighting15AnsiHighlighterD2Ev@Base 6.0.0
 _ZN19KSyntaxHighlighting15HtmlHighlighter11applyFormatEiiRKNS_6FormatE@Base 6.0.0
 _ZN19KSyntaxHighlighting15HtmlHighlighter13highlightDataEP9QIODeviceRK7QString@Base 6.0.0
 _ZN19KSyntaxHighlighting15HtmlHighlighter13highlightFileERK7QStringS3_@Base 6.0.0
 _ZN19KSyntaxHighlighting15HtmlHighlighter13setOutputFileEP8_IO_FILE@Base 6.0.0
 _ZN19KSyntaxHighlighting15HtmlHighlighter13setOutputFileERK7QString@Base 6.0.0
 _ZN19KSyntaxHighlighting15HtmlHighlighter17setBackgroundRoleENS_5Theme15EditorColorRoleE@Base 6.6.0
 _ZN19KSyntaxHighlighting15HtmlHighlighterC1Ev@Base 6.0.0
 _ZN19KSyntaxHighlighting15HtmlHighlighterC2Ev@Base 6.0.0
 _ZN19KSyntaxHighlighting15HtmlHighlighterD0Ev@Base 6.0.0
 _ZN19KSyntaxHighlighting15HtmlHighlighterD1Ev@Base 6.0.0
 _ZN19KSyntaxHighlighting15HtmlHighlighterD2Ev@Base 6.0.0
 _ZN19KSyntaxHighlighting15WildcardMatcher10exactMatchE11QStringViewS1_@Base 6.0.0
 _ZN19KSyntaxHighlighting17SyntaxHighlighter11applyFormatEiiRKNS_6FormatE@Base 6.0.0
 _ZN19KSyntaxHighlighting17SyntaxHighlighter11qt_metacallEN11QMetaObject4CallEiPPv@Base 6.0.0
 _ZN19KSyntaxHighlighting17SyntaxHighlighter11qt_metacastEPKc@Base 6.0.0
 _ZN19KSyntaxHighlighting17SyntaxHighlighter12applyFoldingEiiNS_13FoldingRegionE@Base 6.0.0
 _ZN19KSyntaxHighlighting17SyntaxHighlighter13setDefinitionERKNS_10DefinitionE@Base 6.0.0
 _ZN19KSyntaxHighlighting17SyntaxHighlighter14highlightBlockERK7QString@Base 6.0.0
 _ZN19KSyntaxHighlighting17SyntaxHighlighter16staticMetaObjectE@Base 6.0.0
 _ZN19KSyntaxHighlighting17SyntaxHighlighter8setThemeERKNS_5ThemeE@Base 6.0.0
 _ZN19KSyntaxHighlighting17SyntaxHighlighterC1EP13QTextDocument@Base 6.0.0
 _ZN19KSyntaxHighlighting17SyntaxHighlighterC1EP7QObject@Base 6.0.0
 _ZN19KSyntaxHighlighting17SyntaxHighlighterC2EP13QTextDocument@Base 6.0.0
 _ZN19KSyntaxHighlighting17SyntaxHighlighterC2EP7QObject@Base 6.0.0
 _ZN19KSyntaxHighlighting17SyntaxHighlighterD0Ev@Base 6.0.0
 _ZN19KSyntaxHighlighting17SyntaxHighlighterD1Ev@Base 6.0.0
 _ZN19KSyntaxHighlighting17SyntaxHighlighterD2Ev@Base 6.0.0
 _ZN19KSyntaxHighlighting19AbstractHighlighter12applyFoldingEiiNS_13FoldingRegionE@Base 6.0.0
 _ZN19KSyntaxHighlighting19AbstractHighlighter13highlightLineE11QStringViewRKNS_5StateE@Base 6.0.0
 _ZN19KSyntaxHighlighting19AbstractHighlighter13setDefinitionERKNS_10DefinitionE@Base 6.0.0
 _ZN19KSyntaxHighlighting19AbstractHighlighter8setThemeERKNS_5ThemeE@Base 6.0.0
 _ZN19KSyntaxHighlighting19AbstractHighlighterC1Ev@Base 6.0.0
 _ZN19KSyntaxHighlighting19AbstractHighlighterC2Ev@Base 6.0.0
 _ZN19KSyntaxHighlighting19AbstractHighlighterD0Ev@Base 6.0.0
 _ZN19KSyntaxHighlighting19AbstractHighlighterD1Ev@Base 6.0.0
 _ZN19KSyntaxHighlighting19AbstractHighlighterD2Ev@Base 6.0.0
 _ZN19KSyntaxHighlighting20DefinitionDownloader11qt_metacallEN11QMetaObject4CallEiPPv@Base 6.0.0
 _ZN19KSyntaxHighlighting20DefinitionDownloader11qt_metacastEPKc@Base 6.0.0
 _ZN19KSyntaxHighlighting20DefinitionDownloader16staticMetaObjectE@Base 6.0.0
 _ZN19KSyntaxHighlighting20DefinitionDownloader18informationMessageERK7QString@Base 6.0.0
 _ZN19KSyntaxHighlighting20DefinitionDownloader4doneEv@Base 6.0.0
 _ZN19KSyntaxHighlighting20DefinitionDownloader5startEv@Base 6.0.0
 _ZN19KSyntaxHighlighting20DefinitionDownloaderC1EPNS_10RepositoryEP7QObject@Base 6.0.0
 _ZN19KSyntaxHighlighting20DefinitionDownloaderC2EPNS_10RepositoryEP7QObject@Base 6.0.0
 _ZN19KSyntaxHighlighting20DefinitionDownloaderD0Ev@Base 6.0.0
 _ZN19KSyntaxHighlighting20DefinitionDownloaderD1Ev@Base 6.0.0
 _ZN19KSyntaxHighlighting20DefinitionDownloaderD2Ev@Base 6.0.0
 _ZN19KSyntaxHighlighting5StateC1EOS0_@Base 6.0.0
 _ZN19KSyntaxHighlighting5StateC1ERKS0_@Base 6.0.0
 _ZN19KSyntaxHighlighting5StateC1Ev@Base 6.0.0
 _ZN19KSyntaxHighlighting5StateC2EOS0_@Base 6.0.0
 _ZN19KSyntaxHighlighting5StateC2ERKS0_@Base 6.0.0
 _ZN19KSyntaxHighlighting5StateC2Ev@Base 6.0.0
 _ZN19KSyntaxHighlighting5StateD1Ev@Base 6.0.0
 _ZN19KSyntaxHighlighting5StateD2Ev@Base 6.0.0
 _ZN19KSyntaxHighlighting5StateaSEOS0_@Base 6.0.0
 _ZN19KSyntaxHighlighting5StateaSERKS0_@Base 6.0.0
 _ZN19KSyntaxHighlighting5Theme16staticMetaObjectE@Base 6.0.0
 _ZN19KSyntaxHighlighting5ThemeC1ERKS0_@Base 6.0.0
 _ZN19KSyntaxHighlighting5ThemeC1Ev@Base 6.0.0
 _ZN19KSyntaxHighlighting5ThemeC2ERKS0_@Base 6.0.0
 _ZN19KSyntaxHighlighting5ThemeC2Ev@Base 6.0.0
 _ZN19KSyntaxHighlighting5ThemeD1Ev@Base 6.0.0
 _ZN19KSyntaxHighlighting5ThemeD2Ev@Base 6.0.0
 _ZN19KSyntaxHighlighting5ThemeaSERKS0_@Base 6.0.0
 (subst)_ZN19KSyntaxHighlighting5qHashERKNS_5StateE{size_t}@Base 6.0.0
 _ZN19KSyntaxHighlighting6FormatC1ERKS0_@Base 6.0.0
 _ZN19KSyntaxHighlighting6FormatC1Ev@Base 6.0.0
 _ZN19KSyntaxHighlighting6FormatC2ERKS0_@Base 6.0.0
 _ZN19KSyntaxHighlighting6FormatC2Ev@Base 6.0.0
 _ZN19KSyntaxHighlighting6FormatD1Ev@Base 6.0.0
 _ZN19KSyntaxHighlighting6FormatD2Ev@Base 6.0.0
 _ZN19KSyntaxHighlighting6FormataSERKS0_@Base 6.0.0
 _ZNK19KSyntaxHighlighting10Definition10extensionsEv@Base 6.0.0
 _ZNK19KSyntaxHighlighting10Definition11keywordListERK7QString@Base 6.0.0
 _ZNK19KSyntaxHighlighting10Definition12keywordListsEv@Base 6.0.0
 _ZNK19KSyntaxHighlighting10Definition14foldingEnabledEv@Base 6.0.0
 _ZNK19KSyntaxHighlighting10Definition14translatedNameEv@Base 6.0.0
 _ZNK19KSyntaxHighlighting10Definition15isWordDelimiterE5QChar@Base 6.0.0
 _ZNK19KSyntaxHighlighting10Definition16alternativeNamesEv@Base 6.3.0
 _ZNK19KSyntaxHighlighting10Definition17foldingIgnoreListEv@Base 6.0.0
 _ZNK19KSyntaxHighlighting10Definition17translatedSectionEv@Base 6.0.0
 _ZNK19KSyntaxHighlighting10Definition18characterEncodingsEv@Base 6.0.0
 _ZNK19KSyntaxHighlighting10Definition19includedDefinitionsEv@Base 6.0.0
 _ZNK19KSyntaxHighlighting10Definition19isWordWrapDelimiterE5QChar@Base 6.0.0
 _ZNK19KSyntaxHighlighting10Definition22multiLineCommentMarkerEv@Base 6.0.0
 _ZNK19KSyntaxHighlighting10Definition23singleLineCommentMarkerEv@Base 6.0.0
 _ZNK19KSyntaxHighlighting10Definition25singleLineCommentPositionEv@Base 6.0.0
 _ZNK19KSyntaxHighlighting10Definition30indentationBasedFoldingEnabledEv@Base 6.0.0
 _ZNK19KSyntaxHighlighting10Definition4nameEv@Base 6.0.0
 _ZNK19KSyntaxHighlighting10Definition5styleEv@Base 6.0.0
 _ZNK19KSyntaxHighlighting10Definition6authorEv@Base 6.0.0
 _ZNK19KSyntaxHighlighting10Definition7formatsEv@Base 6.0.0
 _ZNK19KSyntaxHighlighting10Definition7isValidEv@Base 6.0.0
 _ZNK19KSyntaxHighlighting10Definition7licenseEv@Base 6.0.0
 _ZNK19KSyntaxHighlighting10Definition7sectionEv@Base 6.0.0
 _ZNK19KSyntaxHighlighting10Definition7versionEv@Base 6.0.0
 _ZNK19KSyntaxHighlighting10Definition8filePathEv@Base 6.0.0
 _ZNK19KSyntaxHighlighting10Definition8indenterEv@Base 6.0.0
 _ZNK19KSyntaxHighlighting10Definition8isHiddenEv@Base 6.0.0
 _ZNK19KSyntaxHighlighting10Definition8priorityEv@Base 6.0.0
 _ZNK19KSyntaxHighlighting10Definition9mimeTypesEv@Base 6.0.0
 _ZNK19KSyntaxHighlighting10DefinitioneqERKS0_@Base 6.0.0
 _ZNK19KSyntaxHighlighting10DefinitionneERKS0_@Base 6.0.0
 _ZNK19KSyntaxHighlighting10Repository10metaObjectEv@Base 6.0.0
 _ZNK19KSyntaxHighlighting10Repository11definitionsEv@Base 6.0.0
 _ZNK19KSyntaxHighlighting10Repository12defaultThemeENS0_12DefaultThemeE@Base 6.0.0
 _ZNK19KSyntaxHighlighting10Repository15themeForPaletteERK8QPalette@Base 6.0.0
 _ZNK19KSyntaxHighlighting10Repository17customSearchPathsEv@Base 6.0.0
 _ZNK19KSyntaxHighlighting10Repository17definitionForNameERK7QString@Base 6.0.0
 _ZNK19KSyntaxHighlighting10Repository21definitionForFileNameERK7QString@Base 6.0.0
 _ZNK19KSyntaxHighlighting10Repository21definitionForMimeTypeERK7QString@Base 6.0.0
 _ZNK19KSyntaxHighlighting10Repository22definitionsForFileNameERK7QString@Base 6.0.0
 _ZNK19KSyntaxHighlighting10Repository22definitionsForMimeTypeERK7QString@Base 6.0.0
 _ZNK19KSyntaxHighlighting10Repository5themeERK7QString@Base 6.0.0
 _ZNK19KSyntaxHighlighting10Repository6themesEv@Base 6.0.0
 _ZNK19KSyntaxHighlighting13FoldingRegion2idEv@Base 6.0.0
 _ZNK19KSyntaxHighlighting13FoldingRegion4typeEv@Base 6.0.0
 _ZNK19KSyntaxHighlighting13FoldingRegion7isValidEv@Base 6.0.0
 _ZNK19KSyntaxHighlighting13FoldingRegion7siblingEv@Base 6.0.0
 _ZNK19KSyntaxHighlighting13FoldingRegioneqERKS0_@Base 6.0.0
 _ZNK19KSyntaxHighlighting17SyntaxHighlighter10metaObjectEv@Base 6.0.0
 _ZNK19KSyntaxHighlighting17SyntaxHighlighter19startsFoldingRegionERK10QTextBlock@Base 6.0.0
 _ZNK19KSyntaxHighlighting17SyntaxHighlighter20findFoldingRegionEndERK10QTextBlock@Base 6.0.0
 _ZNK19KSyntaxHighlighting19AbstractHighlighter10definitionEv@Base 6.0.0
 _ZNK19KSyntaxHighlighting19AbstractHighlighter5themeEv@Base 6.0.0
 _ZNK19KSyntaxHighlighting20DefinitionDownloader10metaObjectEv@Base 6.0.0
 _ZNK19KSyntaxHighlighting5State30indentationBasedFoldingEnabledEv@Base 6.0.0
 _ZNK19KSyntaxHighlighting5StateeqERKS0_@Base 6.0.0
 _ZNK19KSyntaxHighlighting5StateneERKS0_@Base 6.0.0
 _ZNK19KSyntaxHighlighting5Theme10isReadOnlyEv@Base 6.0.0
 _ZNK19KSyntaxHighlighting5Theme11editorColorENS0_15EditorColorRoleE@Base 6.0.0
 _ZNK19KSyntaxHighlighting5Theme11isUnderlineENS0_9TextStyleE@Base 6.0.0
 _ZNK19KSyntaxHighlighting5Theme14translatedNameEv@Base 6.0.0
 _ZNK19KSyntaxHighlighting5Theme15backgroundColorENS0_9TextStyleE@Base 6.0.0
 _ZNK19KSyntaxHighlighting5Theme15isStrikeThroughENS0_9TextStyleE@Base 6.0.0
 _ZNK19KSyntaxHighlighting5Theme17selectedTextColorENS0_9TextStyleE@Base 6.0.0
 _ZNK19KSyntaxHighlighting5Theme23selectedBackgroundColorENS0_9TextStyleE@Base 6.0.0
 _ZNK19KSyntaxHighlighting5Theme4nameEv@Base 6.0.0
 _ZNK19KSyntaxHighlighting5Theme6isBoldENS0_9TextStyleE@Base 6.0.0
 _ZNK19KSyntaxHighlighting5Theme7isValidEv@Base 6.0.0
 _ZNK19KSyntaxHighlighting5Theme8filePathEv@Base 6.0.0
 _ZNK19KSyntaxHighlighting5Theme8isItalicENS0_9TextStyleE@Base 6.0.0
 _ZNK19KSyntaxHighlighting5Theme9textColorENS0_9TextStyleE@Base 6.0.0
 _ZNK19KSyntaxHighlighting6Format10spellCheckEv@Base 6.0.0
 _ZNK19KSyntaxHighlighting6Format11isUnderlineERKNS_5ThemeE@Base 6.0.0
 _ZNK19KSyntaxHighlighting6Format12hasTextColorERKNS_5ThemeE@Base 6.0.0
 _ZNK19KSyntaxHighlighting6Format15backgroundColorERKNS_5ThemeE@Base 6.0.0
 _ZNK19KSyntaxHighlighting6Format15hasBoldOverrideEv@Base 6.0.0
 _ZNK19KSyntaxHighlighting6Format15isStrikeThroughERKNS_5ThemeE@Base 6.0.0
 _ZNK19KSyntaxHighlighting6Format17hasItalicOverrideEv@Base 6.0.0
 _ZNK19KSyntaxHighlighting6Format17selectedTextColorERKNS_5ThemeE@Base 6.0.0
 _ZNK19KSyntaxHighlighting6Format18hasBackgroundColorERKNS_5ThemeE@Base 6.0.0
 _ZNK19KSyntaxHighlighting6Format18isDefaultTextStyleERKNS_5ThemeE@Base 6.0.0
 _ZNK19KSyntaxHighlighting6Format20hasTextColorOverrideEv@Base 6.0.0
 _ZNK19KSyntaxHighlighting6Format20hasUnderlineOverrideEv@Base 6.0.0
 _ZNK19KSyntaxHighlighting6Format23selectedBackgroundColorERKNS_5ThemeE@Base 6.0.0
 _ZNK19KSyntaxHighlighting6Format24hasStrikeThroughOverrideEv@Base 6.0.0
 _ZNK19KSyntaxHighlighting6Format26hasBackgroundColorOverrideEv@Base 6.0.0
 _ZNK19KSyntaxHighlighting6Format28hasSelectedTextColorOverrideEv@Base 6.0.0
 _ZNK19KSyntaxHighlighting6Format2idEv@Base 6.0.0
 _ZNK19KSyntaxHighlighting6Format34hasSelectedBackgroundColorOverrideEv@Base 6.0.0
 _ZNK19KSyntaxHighlighting6Format4nameEv@Base 6.0.0
 _ZNK19KSyntaxHighlighting6Format6isBoldERKNS_5ThemeE@Base 6.0.0
 _ZNK19KSyntaxHighlighting6Format7isValidEv@Base 6.0.0
 _ZNK19KSyntaxHighlighting6Format8isItalicERKNS_5ThemeE@Base 6.0.0
 _ZNK19KSyntaxHighlighting6Format9textColorERKNS_5ThemeE@Base 6.0.0
 _ZNK19KSyntaxHighlighting6Format9textStyleEv@Base 6.0.0
 (optional=templinst)_ZNSt8_Rb_treeI7QStringSt4pairIKS0_N19KSyntaxHighlighting10DefinitionEESt10_Select1stIS5_ESt4lessIS0_ESaIS5_EE24_M_get_insert_unique_posERS2_@Base 6.0.0
 (optional=templinst)_ZNSt8_Rb_treeI7QStringSt4pairIKS0_N19KSyntaxHighlighting10DefinitionEESt10_Select1stIS5_ESt4lessIS0_ESaIS5_EE29_M_get_insert_hint_unique_posESt23_Rb_tree_const_iteratorIS5_ERS2_@Base 6.0.0
 _ZTIN19KSyntaxHighlighting10RepositoryE@Base 6.0.0
 _ZTIN19KSyntaxHighlighting15AnsiHighlighterE@Base 6.0.0
 _ZTIN19KSyntaxHighlighting15HtmlHighlighterE@Base 6.0.0
 _ZTIN19KSyntaxHighlighting17SyntaxHighlighterE@Base 6.0.0
 _ZTIN19KSyntaxHighlighting19AbstractHighlighterE@Base 6.0.0
 _ZTIN19KSyntaxHighlighting20DefinitionDownloaderE@Base 6.0.0
 (arch=armel riscv64)_ZTIN9__gnu_cxx7__mutexE@Base 6.0.0
 (arch=armel riscv64)_ZTISt11_Mutex_baseILN9__gnu_cxx12_Lock_policyE1EE@Base 6.0.0
 (arch=!armel !riscv64)_ZTISt11_Mutex_baseILN9__gnu_cxx12_Lock_policyE2EE@Base 6.0.0
 (arch=armel riscv64)_ZTISt16_Sp_counted_baseILN9__gnu_cxx12_Lock_policyE1EE@Base 6.0.0
 (arch=!armel !riscv64)_ZTISt16_Sp_counted_baseILN9__gnu_cxx12_Lock_policyE2EE@Base 6.0.0
 (arch=armel armhf)_ZTISt19_Sp_make_shared_tag@Base 6.0.0
 _ZTIZN9QMetaType17registerConverterI5QListIN19KSyntaxHighlighting10DefinitionEE9QIterableI13QMetaSequenceEN9QtPrivate33QSequentialIterableConvertFunctorIS4_EEEEbT1_EUlPKvPvE_@Base 6.0.0
 _ZTIZN9QMetaType17registerConverterI5QListIN19KSyntaxHighlighting5ThemeEE9QIterableI13QMetaSequenceEN9QtPrivate33QSequentialIterableConvertFunctorIS4_EEEEbT1_EUlPKvPvE_@Base 6.0.0
 _ZTIZN9QMetaType19registerMutableViewI5QListIN19KSyntaxHighlighting10DefinitionEE9QIterableI13QMetaSequenceEN9QtPrivate37QSequentialIterableMutableViewFunctorIS4_EEEEbT1_EUlPvSC_E_@Base 6.0.0
 _ZTIZN9QMetaType19registerMutableViewI5QListIN19KSyntaxHighlighting5ThemeEE9QIterableI13QMetaSequenceEN9QtPrivate37QSequentialIterableMutableViewFunctorIS4_EEEEbT1_EUlPvSC_E_@Base 6.0.0
 _ZTSN19KSyntaxHighlighting10RepositoryE@Base 6.0.0
 _ZTSN19KSyntaxHighlighting15AnsiHighlighterE@Base 6.0.0
 _ZTSN19KSyntaxHighlighting15HtmlHighlighterE@Base 6.0.0
 _ZTSN19KSyntaxHighlighting17SyntaxHighlighterE@Base 6.0.0
 _ZTSN19KSyntaxHighlighting19AbstractHighlighterE@Base 6.0.0
 _ZTSN19KSyntaxHighlighting20DefinitionDownloaderE@Base 6.0.0
 (arch=armel riscv64)_ZTSN9__gnu_cxx7__mutexE@Base 6.0.0
 (arch=armel riscv64)_ZTSSt11_Mutex_baseILN9__gnu_cxx12_Lock_policyE1EE@Base 6.0.0
 (arch=!armel !riscv64)_ZTSSt11_Mutex_baseILN9__gnu_cxx12_Lock_policyE2EE@Base 6.0.0
 (arch=armel riscv64)_ZTSSt16_Sp_counted_baseILN9__gnu_cxx12_Lock_policyE1EE@Base 6.0.0
 (arch=!armel !riscv64)_ZTSSt16_Sp_counted_baseILN9__gnu_cxx12_Lock_policyE2EE@Base 6.0.0
 _ZTSSt19_Sp_make_shared_tag@Base 6.0.0
 _ZTSZN9QMetaType17registerConverterI5QListIN19KSyntaxHighlighting10DefinitionEE9QIterableI13QMetaSequenceEN9QtPrivate33QSequentialIterableConvertFunctorIS4_EEEEbT1_EUlPKvPvE_@Base 6.0.0
 _ZTSZN9QMetaType17registerConverterI5QListIN19KSyntaxHighlighting5ThemeEE9QIterableI13QMetaSequenceEN9QtPrivate33QSequentialIterableConvertFunctorIS4_EEEEbT1_EUlPKvPvE_@Base 6.0.0
 _ZTSZN9QMetaType19registerMutableViewI5QListIN19KSyntaxHighlighting10DefinitionEE9QIterableI13QMetaSequenceEN9QtPrivate37QSequentialIterableMutableViewFunctorIS4_EEEEbT1_EUlPvSC_E_@Base 6.0.0
 _ZTSZN9QMetaType19registerMutableViewI5QListIN19KSyntaxHighlighting5ThemeEE9QIterableI13QMetaSequenceEN9QtPrivate37QSequentialIterableMutableViewFunctorIS4_EEEEbT1_EUlPvSC_E_@Base 6.0.0
 _ZTVN19KSyntaxHighlighting10RepositoryE@Base 6.0.0
 _ZTVN19KSyntaxHighlighting15AnsiHighlighterE@Base 6.0.0
 _ZTVN19KSyntaxHighlighting15HtmlHighlighterE@Base 6.0.0
 _ZTVN19KSyntaxHighlighting17SyntaxHighlighterE@Base 6.0.0
 _ZTVN19KSyntaxHighlighting19AbstractHighlighterE@Base 6.0.0
 _ZTVN19KSyntaxHighlighting20DefinitionDownloaderE@Base 6.0.0
 (optional=templinst)_ZZN9QMetaType21registerConverterImplI5QListIN19KSyntaxHighlighting10DefinitionEE9QIterableI13QMetaSequenceEEEbSt8functionIFbPKvPvEES_S_E10unregister@Base 6.0.0
 (optional=templinst)_ZZN9QMetaType21registerConverterImplI5QListIN19KSyntaxHighlighting5ThemeEE9QIterableI13QMetaSequenceEEEbSt8functionIFbPKvPvEES_S_E10unregister@Base 6.0.0
 (optional=templinst)_ZZN9QMetaType23registerMutableViewImplI5QListIN19KSyntaxHighlighting10DefinitionEE9QIterableI13QMetaSequenceEEEbSt8functionIFbPvS9_EES_S_E10unregister@Base 6.0.0
 (optional=templinst)_ZZN9QMetaType23registerMutableViewImplI5QListIN19KSyntaxHighlighting5ThemeEE9QIterableI13QMetaSequenceEEEbSt8functionIFbPvS9_EES_S_E10unregister@Base 6.0.0
 _ZZNSt19_Sp_make_shared_tag5_S_tiEvE5__tag@Base 6.0.0
 (c++)"non-virtual thunk to KSyntaxHighlighting::SyntaxHighlighter::applyFolding(int, int, KSyntaxHighlighting::FoldingRegion)@Base" 6.0.0
 (c++)"non-virtual thunk to KSyntaxHighlighting::SyntaxHighlighter::applyFormat(int, int, KSyntaxHighlighting::Format const&)@Base" 6.0.0
 (c++)"non-virtual thunk to KSyntaxHighlighting::SyntaxHighlighter::setDefinition(KSyntaxHighlighting::Definition const&)@Base" 6.0.0
 (c++)"non-virtual thunk to KSyntaxHighlighting::SyntaxHighlighter::setTheme(KSyntaxHighlighting::Theme const&)@Base" 6.0.0
 (c++)"non-virtual thunk to KSyntaxHighlighting::SyntaxHighlighter::~SyntaxHighlighter()@Base" 6.0.0
